; Function Attrs: nounwind uwtable
define nonnull ptr @l___private_Std_Net_Addr_0__Std_Net_decEqSocketAddressV6____x40_Std_Net_Addr___hyg_554____boxed(ptr noundef %0, ptr noundef %1) local_unnamed_addr #0 {
  %3 = getelementptr inbounds nuw i8, ptr %0, i64 8
  %4 = load ptr, ptr %3, align 8, !tbaa !4
  %5 = getelementptr i8, ptr %0, i64 16
  %.val12.i = load i16, ptr %5, align 2, !tbaa !11
  %6 = getelementptr inbounds nuw i8, ptr %1, i64 8
  %7 = load ptr, ptr %6, align 8, !tbaa !4
  %8 = getelementptr i8, ptr %1, i64 16
  %.val.i = load i16, ptr %8, align 2, !tbaa !11
  %9 = load ptr, ptr @l___private_Init_Data_Vector_Basic_0__decEqVector____x40_Init_Data_Vector_Basic___hyg_100____at___private_Std_Net_Addr_0__Std_Net_decEqIPv6Addr____x40_Std_Net_Addr___hyg_433____spec__1___rarg___closed__1, align 8, !tbaa !4
  %10 = tail call zeroext i8 @l_Array_instDecidableEq___rarg(ptr noundef %9, ptr noundef %4, ptr noundef %7) #7
  %11 = ptrtoint ptr %1 to i64
  %12 = and i64 %11, 1
  %.not = icmp eq i64 %12, 0
  br i1 %.not, label %13, label %lean_dec.exit5

13:                                               ; preds = %2
  %14 = load i32, ptr %1, align 4, !tbaa !8
  %15 = icmp sgt i32 %14, 1
  br i1 %15, label %16, label %18, !prof !13

16:                                               ; preds = %13
  %17 = add nsw i32 %14, -1
  store i32 %17, ptr %1, align 4, !tbaa !8
  br label %lean_dec.exit5

18:                                               ; preds = %13
  %.not.i = icmp eq i32 %14, 0
  br i1 %.not.i, label %lean_dec.exit5, label %19

19:                                               ; preds = %18
  tail call void @lean_dec_ref_cold(ptr noundef nonnull %1) #7
  br label %lean_dec.exit5

lean_dec.exit5:                                   ; preds = %19, %18, %16, %2
  %20 = ptrtoint ptr %0 to i64
  %21 = and i64 %20, 1
  %.not8 = icmp eq i64 %21, 0
  br i1 %.not8, label %22, label %lean_dec.exit

22:                                               ; preds = %lean_dec.exit5
  %23 = load i32, ptr %0, align 4, !tbaa !8
  %24 = icmp sgt i32 %23, 1
  br i1 %24, label %25, label %27, !prof !13

25:                                               ; preds = %22
  %26 = add nsw i32 %23, -1
  store i32 %26, ptr %0, align 4, !tbaa !8
  br label %lean_dec.exit

27:                                               ; preds = %22
  %.not.i6 = icmp eq i32 %23, 0
  br i1 %.not.i6, label %lean_dec.exit, label %28

28:                                               ; preds = %27
  tail call void @lean_dec_ref_cold(ptr noundef nonnull %0) #7
  br label %lean_dec.exit

lean_dec.exit:                                    ; preds = %28, %27, %25, %lean_dec.exit5
  %29 = icmp ne i8 %10, 0
  %30 = icmp eq i16 %.val12.i, %.val.i
  %narrow.i = select i1 %29, i1 %30, i1 false
  %31 = select i1 %narrow.i, ptr inttoptr (i64 3 to ptr), ptr inttoptr (i64 1 to ptr)
  ret ptr %31
}